target datalayout = "e-m:e-p270:32:32-p271:32:32-p272:64:64-i64:64-i128:128-f80:128-n8:16:32:64-S128"
target triple = "x86_64-pc-linux-gnu"

%"class.absl::lts_20240722::log_internal::Voidify" = type { i8 }
%"class.absl::lts_20240722::log_internal::LogMessage" = type { %"class.absl::lts_20240722::base_internal::ErrnoSaver", %"class.std::unique_ptr" }
%"class.absl::lts_20240722::base_internal::ErrnoSaver" = type { i32 }
%"class.std::unique_ptr" = type { %"struct.std::__uniq_ptr_data" }
%"struct.std::__uniq_ptr_data" = type { %"class.std::__uniq_ptr_impl" }
%"class.std::__uniq_ptr_impl" = type { %"class.std::tuple" }
%"class.std::tuple" = type { %"struct.std::_Tuple_impl" }
%"struct.std::_Tuple_impl" = type { %"struct.std::_Head_base.1" }
%"struct.std::_Head_base.1" = type { ptr }
%class.grpc_ssl_credentials = type <{ %struct.grpc_channel_credentials, %struct.grpc_ssl_config, ptr, ptr, i32, [4 x i8] }>
%struct.grpc_channel_credentials = type { %"class.grpc_core::RefCounted" }
%"class.grpc_core::RefCounted" = type { %"class.grpc_core::PolymorphicRefCount", %"class.grpc_core::RefCount" }
%"class.grpc_core::PolymorphicRefCount" = type { ptr }
%"class.grpc_core::RefCount" = type { %"struct.std::atomic" }
%"struct.std::atomic" = type { %"struct.std::__atomic_base" }
%"struct.std::__atomic_base" = type { i64 }
%struct.grpc_ssl_config = type { ptr, ptr, %struct.verify_peer_options, i32, i32 }
%struct.verify_peer_options = type { ptr, ptr, ptr }
%"class.absl::lts_20240722::log_internal::LogMessageFatal" = type { %"class.absl::lts_20240722::log_internal::LogMessage" }
%"class.std::basic_string_view" = type { i64, ptr }
%struct.grpc_ssl_pem_key_cert_pair = type { ptr, ptr }
%struct.tsi_ssl_pem_key_cert_pair = type { ptr, ptr }
%"class.std::__cxx11::basic_string" = type { %"struct.std::__cxx11::basic_string<char>::_Alloc_hider", i64, %union.anon }
%"struct.std::__cxx11::basic_string<char>::_Alloc_hider" = type { ptr }
%union.anon = type { i64, [8 x i8] }

@.str = private unnamed_addr constant [144 x i8] c"generated/home/dtcxzyw/WorkSpace/Projects/compilers/llvm-opt-benchmark/bench/grpc/grpc/src/core/lib/security/credentials/ssl/ssl_credentials.cc\00", align 1
@.str.8 = private unnamed_addr constant [42 x i8] c"pem_key_cert_pair->private_key != nullptr\00", align 1
@.str.9 = private unnamed_addr constant [41 x i8] c"pem_key_cert_pair->cert_chain != nullptr\00", align 1

; Function Attrs: mustprogress nounwind uwtable
define available_externally noundef ptr @_ZNKSt7__cxx1112basic_stringIcSt11char_traitsIcESaIcEE7_M_dataEv(ptr noundef nonnull align 8 dereferenceable(32) %0) #8 align 2 {
  %2 = alloca ptr, align 8
  store ptr %0, ptr %2, align 8, !tbaa !40
  %3 = load ptr, ptr %2, align 8
  %4 = getelementptr inbounds nuw %"class.std::__cxx11::basic_string", ptr %3, i32 0, i32 0
  %5 = getelementptr inbounds nuw %"struct.std::__cxx11::basic_string<char>::_Alloc_hider", ptr %4, i32 0, i32 0
  %6 = load ptr, ptr %5, align 8, !tbaa !222
  ret ptr %6
}

; Function Attrs: mustprogress nounwind uwtable
define linkonce_odr void @_ZNSt17basic_string_viewIcSt11char_traitsIcEEC2EPKcm(ptr noundef nonnull align 8 dereferenceable(16) %0, ptr noundef %1, i64 noundef %2) unnamed_addr #8 comdat align 2 {
  %4 = alloca ptr, align 8
  %5 = alloca ptr, align 8
  %6 = alloca i64, align 8
  store ptr %0, ptr %4, align 8, !tbaa !98
  store ptr %1, ptr %5, align 8, !tbaa !8
  store i64 %2, ptr %6, align 8, !tbaa !173
  %7 = load ptr, ptr %4, align 8
  %8 = getelementptr inbounds nuw %"class.std::basic_string_view", ptr %7, i32 0, i32 0
  %9 = load i64, ptr %6, align 8, !tbaa !173
  store i64 %9, ptr %8, align 8, !tbaa !100
  %10 = getelementptr inbounds nuw %"class.std::basic_string_view", ptr %7, i32 0, i32 1
  %11 = load ptr, ptr %5, align 8, !tbaa !8
  store ptr %11, ptr %10, align 8, !tbaa !102
  ret void
}

; Function Attrs: mustprogress nounwind uwtable
define available_externally noundef i64 @_ZNKSt7__cxx1112basic_stringIcSt11char_traitsIcESaIcEE4sizeEv(ptr noundef nonnull align 8 dereferenceable(32) %0) #8 align 2 {
  %2 = alloca ptr, align 8
  store ptr %0, ptr %2, align 8, !tbaa !40
  %3 = load ptr, ptr %2, align 8
  %4 = getelementptr inbounds nuw %"class.std::__cxx11::basic_string", ptr %3, i32 0, i32 1
  %5 = load i64, ptr %4, align 8, !tbaa !219
  ret i64 %5
}

; Function Attrs: mustprogress nounwind uwtable
define available_externally noundef ptr @_ZNKSt7__cxx1112basic_stringIcSt11char_traitsIcESaIcEE4dataEv(ptr noundef nonnull align 8 dereferenceable(32) %0) #8 align 2 {
  %2 = alloca ptr, align 8
  store ptr %0, ptr %2, align 8, !tbaa !40
  %3 = load ptr, ptr %2, align 8
  %4 = call noundef ptr @_ZNKSt7__cxx1112basic_stringIcSt11char_traitsIcESaIcEE7_M_dataEv(ptr noundef nonnull align 8 dereferenceable(32) %3)
  ret ptr %4
}

; Function Attrs: mustprogress nounwind uwtable
define linkonce_odr void @_ZNKO4absl12lts_2024072212log_internal7VoidifyaaINS1_10LogMessageEEEvRKT_(ptr noundef nonnull align 1 dereferenceable(1) %0, ptr noundef nonnull align 8 dereferenceable(16) %1) #8 comdat align 2 {
  %3 = alloca ptr, align 8
  %4 = alloca ptr, align 8
  store ptr %0, ptr %3, align 8, !tbaa !49
  store ptr %1, ptr %4, align 8, !tbaa !51
  ret void
}

; Function Attrs: mustprogress nounwind uwtable
define linkonce_odr noundef nonnull align 8 dereferenceable(16) ptr @_ZN4absl12lts_2024072212log_internal10LogMessage14InternalStreamEv(ptr noundef nonnull align 8 dereferenceable(16) %0) #8 comdat align 2 {
  %2 = alloca ptr, align 8
  store ptr %0, ptr %2, align 8, !tbaa !51
  %3 = load ptr, ptr %2, align 8
  ret ptr %3
}

; Function Attrs: mustprogress nounwind uwtable
define available_externally { i64, ptr } @_ZNKSt7__cxx1112basic_stringIcSt11char_traitsIcESaIcEEcvSt17basic_string_viewIcS2_EEv(ptr noundef nonnull align 8 dereferenceable(32) %0) #8 align 2 {
  %2 = alloca %"class.std::basic_string_view", align 8
  %3 = alloca ptr, align 8
  store ptr %0, ptr %3, align 8, !tbaa !40
  %4 = load ptr, ptr %3, align 8
  %5 = call noundef ptr @_ZNKSt7__cxx1112basic_stringIcSt11char_traitsIcESaIcEE4dataEv(ptr noundef nonnull align 8 dereferenceable(32) %4) #3
  %6 = call noundef i64 @_ZNKSt7__cxx1112basic_stringIcSt11char_traitsIcESaIcEE4sizeEv(ptr noundef nonnull align 8 dereferenceable(32) %4) #3
  call void @_ZNSt17basic_string_viewIcSt11char_traitsIcEEC2EPKcm(ptr noundef nonnull align 8 dereferenceable(16) %2, ptr noundef %5, i64 noundef %6) #3
  %7 = load { i64, ptr }, ptr %2, align 8
  ret { i64, ptr } %7
}

; Function Attrs: inlinehint mustprogress uwtable
define linkonce_odr noundef ptr @_ZN4absl12lts_2024072212log_internal12Check_NEImplIPKcDnEEPNSt7__cxx1112basic_stringIcSt11char_traitsIcESaIcEEERKT_RKT0_S4_(ptr noundef nonnull align 8 dereferenceable(8) %0, ptr noundef nonnull align 8 dereferenceable(8) %1, ptr noundef %2) #5 comdat {
  %4 = alloca ptr, align 8
  %5 = alloca ptr, align 8
  %6 = alloca ptr, align 8
  store ptr %0, ptr %4, align 8, !tbaa !123
  store ptr %1, ptr %5, align 8, !tbaa !124
  store ptr %2, ptr %6, align 8, !tbaa !8
  %7 = load ptr, ptr %4, align 8, !tbaa !123
  %8 = load ptr, ptr %7, align 8, !tbaa !8
  %9 = icmp ne ptr %8, null
  %10 = zext i1 %9 to i64
  %11 = call i64 @llvm.expect.i64(i64 %10, i64 1)
  %12 = icmp ne i64 %11, 0
  br i1 %12, label %13, label %14

13:                                               ; preds = %3
  br label %19

14:                                               ; preds = %3
  %15 = load ptr, ptr %4, align 8, !tbaa !123
  %16 = load ptr, ptr %15, align 8, !tbaa !8
  %17 = load ptr, ptr %6, align 8, !tbaa !8
  %18 = call noundef nonnull ptr @_ZN4absl12lts_2024072212log_internal17MakeCheckOpStringIPKcPKvEEPNSt7__cxx1112basic_stringIcSt11char_traitsIcESaIcEEET_T0_S4_(ptr noundef %16, ptr noundef null, ptr noundef %17)
  br label %19

19:                                               ; preds = %14, %13
  %20 = phi ptr [ null, %13 ], [ %18, %14 ]
  ret ptr %20
}

; Function Attrs: inlinehint mustprogress nounwind uwtable
define linkonce_odr noundef nonnull align 8 dereferenceable(8) ptr @_ZN4absl12lts_2024072212log_internal21GetReferenceableValueIDnEERKT_S5_(ptr noundef nonnull align 8 dereferenceable(8) %0) #6 comdat {
  %2 = alloca ptr, align 8
  store ptr %0, ptr %2, align 8, !tbaa !124
  %3 = load ptr, ptr %2, align 8, !tbaa !124
  ret ptr %3
}

; Function Attrs: inlinehint mustprogress nounwind uwtable
define linkonce_odr noundef nonnull align 8 dereferenceable(8) ptr @_ZN4absl12lts_2024072212log_internal21GetReferenceableValueIPKcEERKT_S7_(ptr noundef nonnull align 8 dereferenceable(8) %0) #6 comdat {
  %2 = alloca ptr, align 8
  store ptr %0, ptr %2, align 8, !tbaa !123
  %3 = load ptr, ptr %2, align 8, !tbaa !123
  ret ptr %3
}

; Function Attrs: mustprogress uwtable
define void @_ZN20grpc_ssl_credentials12build_configEPKcP26grpc_ssl_pem_key_cert_pairPK28grpc_ssl_verify_peer_options(ptr noundef nonnull align 8 dereferenceable(84) %0, ptr noundef %1, ptr noundef %2, ptr noundef %3) #4 align 2 personality ptr @__gxx_personality_v0 {
  %5 = alloca ptr, align 8
  %6 = alloca ptr, align 8
  %7 = alloca ptr, align 8
  %8 = alloca ptr, align 8
  %9 = alloca ptr, align 8
  %10 = alloca ptr, align 8
  %11 = alloca %"class.absl::lts_20240722::log_internal::Voidify", align 1
  %12 = alloca %"class.absl::lts_20240722::log_internal::LogMessageFatal", align 8
  %13 = alloca %"class.std::basic_string_view", align 8
  %14 = alloca ptr, align 8
  %15 = alloca i32, align 4
  %16 = alloca ptr, align 8
  %17 = alloca ptr, align 8
  %18 = alloca %"class.absl::lts_20240722::log_internal::Voidify", align 1
  %19 = alloca %"class.absl::lts_20240722::log_internal::LogMessageFatal", align 8
  %20 = alloca %"class.std::basic_string_view", align 8
  store ptr %0, ptr %5, align 8, !tbaa !3
  store ptr %1, ptr %6, align 8, !tbaa !8
  store ptr %2, ptr %7, align 8, !tbaa !10
  store ptr %3, ptr %8, align 8, !tbaa !10
  %21 = load ptr, ptr %5, align 8
  %22 = load ptr, ptr %6, align 8, !tbaa !8
  %23 = call ptr @gpr_strdup(ptr noundef %22)
  %24 = getelementptr inbounds nuw %class.grpc_ssl_credentials, ptr %21, i32 0, i32 1
  %25 = getelementptr inbounds nuw %struct.grpc_ssl_config, ptr %24, i32 0, i32 1
  store ptr %23, ptr %25, align 8, !tbaa !30
  %26 = load ptr, ptr %7, align 8, !tbaa !10
  %27 = icmp ne ptr %26, null
  br i1 %27, label %28, label %106

28:                                               ; preds = %4
  br label %29

29:                                               ; preds = %28
  call void @llvm.lifetime.start.p0(i64 8, ptr %9) #3
  %30 = load ptr, ptr %7, align 8, !tbaa !10
  %31 = getelementptr inbounds nuw %struct.grpc_ssl_pem_key_cert_pair, ptr %30, i32 0, i32 0
  %32 = call noundef nonnull align 8 dereferenceable(8) ptr @_ZN4absl12lts_2024072212log_internal21GetReferenceableValueIPKcEERKT_S7_(ptr noundef nonnull align 8 dereferenceable(8) %31)
  call void @llvm.lifetime.start.p0(i64 8, ptr %10) #3
  store ptr null, ptr %10, align 8, !tbaa !38
  %33 = call noundef nonnull align 8 dereferenceable(8) ptr @_ZN4absl12lts_2024072212log_internal21GetReferenceableValueIDnEERKT_S5_(ptr noundef nonnull align 8 dereferenceable(8) %10)
  %34 = call noundef ptr @_ZN4absl12lts_2024072212log_internal12Check_NEImplIPKcDnEEPNSt7__cxx1112basic_stringIcSt11char_traitsIcESaIcEEERKT_RKT0_S4_(ptr noundef nonnull align 8 dereferenceable(8) %32, ptr noundef nonnull align 8 dereferenceable(8) %33, ptr noundef @.str.8)
  call void @llvm.lifetime.end.p0(i64 8, ptr %10) #3
  store ptr %34, ptr %9, align 8, !tbaa !40
  %35 = load ptr, ptr %9, align 8, !tbaa !40
  %36 = icmp ne ptr %35, null
  br i1 %36, label %38, label %37

37:                                               ; preds = %29
  call void @llvm.lifetime.end.p0(i64 8, ptr %9) #3
  br label %57

38:                                               ; preds = %29
  call void @llvm.lifetime.start.p0(i64 1, ptr %11) #3
  call void @llvm.lifetime.start.p0(i64 16, ptr %12) #3
  %39 = load ptr, ptr %9, align 8, !tbaa !40
  %40 = call { i64, ptr } @_ZNKSt7__cxx1112basic_stringIcSt11char_traitsIcESaIcEEcvSt17basic_string_viewIcS2_EEv(ptr noundef nonnull align 8 dereferenceable(32) %39) #3
  %41 = getelementptr inbounds nuw { i64, ptr }, ptr %13, i32 0, i32 0
  %42 = extractvalue { i64, ptr } %40, 0
  store i64 %42, ptr %41, align 8
  %43 = getelementptr inbounds nuw { i64, ptr }, ptr %13, i32 0, i32 1
  %44 = extractvalue { i64, ptr } %40, 1
  store ptr %44, ptr %43, align 8
  %45 = getelementptr inbounds nuw { i64, ptr }, ptr %13, i32 0, i32 0
  %46 = load i64, ptr %45, align 8
  %47 = getelementptr inbounds nuw { i64, ptr }, ptr %13, i32 0, i32 1
  %48 = load ptr, ptr %47, align 8
  call void @_ZN4absl12lts_2024072212log_internal15LogMessageFatalC1EPKciSt17basic_string_viewIcSt11char_traitsIcEE(ptr noundef nonnull align 8 dereferenceable(16) %12, ptr noundef @.str, i32 noundef 147, i64 %46, ptr %48) #24
  %49 = invoke noundef nonnull align 8 dereferenceable(16) ptr @_ZN4absl12lts_2024072212log_internal10LogMessage14InternalStreamEv(ptr noundef nonnull align 8 dereferenceable(16) %12)
          to label %50 unwind label %52

50:                                               ; preds = %38
  invoke void @_ZNKO4absl12lts_2024072212log_internal7VoidifyaaINS1_10LogMessageEEEvRKT_(ptr noundef nonnull align 1 dereferenceable(1) %11, ptr noundef nonnull align 8 dereferenceable(16) %49)
          to label %51 unwind label %52

51:                                               ; preds = %50
  call void @_ZN4absl12lts_2024072212log_internal15LogMessageFatalD1Ev(ptr noundef nonnull align 8 dereferenceable(16) %12) #26
  unreachable

52:                                               ; preds = %50, %38
  %53 = landingpad { ptr, i32 }
          cleanup
  %54 = extractvalue { ptr, i32 } %53, 0
  store ptr %54, ptr %14, align 8
  %55 = extractvalue { ptr, i32 } %53, 1
  store i32 %55, ptr %15, align 4
  call void @_ZN4absl12lts_2024072212log_internal15LogMessageFatalD1Ev(ptr noundef nonnull align 8 dereferenceable(16) %12) #26
  unreachable

56:                                               ; No predecessors!
  call void @llvm.lifetime.end.p0(i64 16, ptr %12) #3
  call void @llvm.lifetime.end.p0(i64 1, ptr %11) #3
  call void @llvm.lifetime.end.p0(i64 8, ptr %9) #3
  br label %120

57:                                               ; preds = %37
  br label %58

58:                                               ; preds = %57
  call void @llvm.lifetime.start.p0(i64 8, ptr %16) #3
  %59 = load ptr, ptr %7, align 8, !tbaa !10
  %60 = getelementptr inbounds nuw %struct.grpc_ssl_pem_key_cert_pair, ptr %59, i32 0, i32 1
  %61 = call noundef nonnull align 8 dereferenceable(8) ptr @_ZN4absl12lts_2024072212log_internal21GetReferenceableValueIPKcEERKT_S7_(ptr noundef nonnull align 8 dereferenceable(8) %60)
  call void @llvm.lifetime.start.p0(i64 8, ptr %17) #3
  store ptr null, ptr %17, align 8, !tbaa !38
  %62 = call noundef nonnull align 8 dereferenceable(8) ptr @_ZN4absl12lts_2024072212log_internal21GetReferenceableValueIDnEERKT_S5_(ptr noundef nonnull align 8 dereferenceable(8) %17)
  %63 = call noundef ptr @_ZN4absl12lts_2024072212log_internal12Check_NEImplIPKcDnEEPNSt7__cxx1112basic_stringIcSt11char_traitsIcESaIcEEERKT_RKT0_S4_(ptr noundef nonnull align 8 dereferenceable(8) %61, ptr noundef nonnull align 8 dereferenceable(8) %62, ptr noundef @.str.9)
  call void @llvm.lifetime.end.p0(i64 8, ptr %17) #3
  store ptr %63, ptr %16, align 8, !tbaa !40
  %64 = load ptr, ptr %16, align 8, !tbaa !40
  %65 = icmp ne ptr %64, null
  br i1 %65, label %67, label %66

66:                                               ; preds = %58
  call void @llvm.lifetime.end.p0(i64 8, ptr %16) #3
  br label %86

67:                                               ; preds = %58
  call void @llvm.lifetime.start.p0(i64 1, ptr %18) #3
  call void @llvm.lifetime.start.p0(i64 16, ptr %19) #3
  %68 = load ptr, ptr %16, align 8, !tbaa !40
  %69 = call { i64, ptr } @_ZNKSt7__cxx1112basic_stringIcSt11char_traitsIcESaIcEEcvSt17basic_string_viewIcS2_EEv(ptr noundef nonnull align 8 dereferenceable(32) %68) #3
  %70 = getelementptr inbounds nuw { i64, ptr }, ptr %20, i32 0, i32 0
  %71 = extractvalue { i64, ptr } %69, 0
  store i64 %71, ptr %70, align 8
  %72 = getelementptr inbounds nuw { i64, ptr }, ptr %20, i32 0, i32 1
  %73 = extractvalue { i64, ptr } %69, 1
  store ptr %73, ptr %72, align 8
  %74 = getelementptr inbounds nuw { i64, ptr }, ptr %20, i32 0, i32 0
  %75 = load i64, ptr %74, align 8
  %76 = getelementptr inbounds nuw { i64, ptr }, ptr %20, i32 0, i32 1
  %77 = load ptr, ptr %76, align 8
  call void @_ZN4absl12lts_2024072212log_internal15LogMessageFatalC1EPKciSt17basic_string_viewIcSt11char_traitsIcEE(ptr noundef nonnull align 8 dereferenceable(16) %19, ptr noundef @.str, i32 noundef 148, i64 %75, ptr %77) #24
  %78 = invoke noundef nonnull align 8 dereferenceable(16) ptr @_ZN4absl12lts_2024072212log_internal10LogMessage14InternalStreamEv(ptr noundef nonnull align 8 dereferenceable(16) %19)
          to label %79 unwind label %81

79:                                               ; preds = %67
  invoke void @_ZNKO4absl12lts_2024072212log_internal7VoidifyaaINS1_10LogMessageEEEvRKT_(ptr noundef nonnull align 1 dereferenceable(1) %18, ptr noundef nonnull align 8 dereferenceable(16) %78)
          to label %80 unwind label %81

80:                                               ; preds = %79
  call void @_ZN4absl12lts_2024072212log_internal15LogMessageFatalD1Ev(ptr noundef nonnull align 8 dereferenceable(16) %19) #26
  unreachable

81:                                               ; preds = %79, %67
  %82 = landingpad { ptr, i32 }
          cleanup
  %83 = extractvalue { ptr, i32 } %82, 0
  store ptr %83, ptr %14, align 8
  %84 = extractvalue { ptr, i32 } %82, 1
  store i32 %84, ptr %15, align 4
  call void @_ZN4absl12lts_2024072212log_internal15LogMessageFatalD1Ev(ptr noundef nonnull align 8 dereferenceable(16) %19) #26
  unreachable

85:                                               ; No predecessors!
  call void @llvm.lifetime.end.p0(i64 16, ptr %19) #3
  call void @llvm.lifetime.end.p0(i64 1, ptr %18) #3
  call void @llvm.lifetime.end.p0(i64 8, ptr %16) #3
  br label %120

86:                                               ; preds = %66
  %87 = call ptr @gpr_zalloc(i64 noundef 16)
  %88 = getelementptr inbounds nuw %class.grpc_ssl_credentials, ptr %21, i32 0, i32 1
  %89 = getelementptr inbounds nuw %struct.grpc_ssl_config, ptr %88, i32 0, i32 0
  store ptr %87, ptr %89, align 8, !tbaa !42
  %90 = load ptr, ptr %7, align 8, !tbaa !10
  %91 = getelementptr inbounds nuw %struct.grpc_ssl_pem_key_cert_pair, ptr %90, i32 0, i32 1
  %92 = load ptr, ptr %91, align 8, !tbaa !43
  %93 = call ptr @gpr_strdup(ptr noundef %92)
  %94 = getelementptr inbounds nuw %class.grpc_ssl_credentials, ptr %21, i32 0, i32 1
  %95 = getelementptr inbounds nuw %struct.grpc_ssl_config, ptr %94, i32 0, i32 0
  %96 = load ptr, ptr %95, align 8, !tbaa !42
  %97 = getelementptr inbounds nuw %struct.tsi_ssl_pem_key_cert_pair, ptr %96, i32 0, i32 1
  store ptr %93, ptr %97, align 8, !tbaa !45
  %98 = load ptr, ptr %7, align 8, !tbaa !10
  %99 = getelementptr inbounds nuw %struct.grpc_ssl_pem_key_cert_pair, ptr %98, i32 0, i32 0
  %100 = load ptr, ptr %99, align 8, !tbaa !47
  %101 = call ptr @gpr_strdup(ptr noundef %100)
  %102 = getelementptr inbounds nuw %class.grpc_ssl_credentials, ptr %21, i32 0, i32 1
  %103 = getelementptr inbounds nuw %struct.grpc_ssl_config, ptr %102, i32 0, i32 0
  %104 = load ptr, ptr %103, align 8, !tbaa !42
  %105 = getelementptr inbounds nuw %struct.tsi_ssl_pem_key_cert_pair, ptr %104, i32 0, i32 0
  store ptr %101, ptr %105, align 8, !tbaa !48
  br label %109

106:                                              ; preds = %4
  %107 = getelementptr inbounds nuw %class.grpc_ssl_credentials, ptr %21, i32 0, i32 1
  %108 = getelementptr inbounds nuw %struct.grpc_ssl_config, ptr %107, i32 0, i32 0
  store ptr null, ptr %108, align 8, !tbaa !42
  br label %109

109:                                              ; preds = %106, %86
  %110 = load ptr, ptr %8, align 8, !tbaa !10
  %111 = icmp ne ptr %110, null
  br i1 %111, label %112, label %116

112:                                              ; preds = %109
  %113 = getelementptr inbounds nuw %class.grpc_ssl_credentials, ptr %21, i32 0, i32 1
  %114 = getelementptr inbounds nuw %struct.grpc_ssl_config, ptr %113, i32 0, i32 2
  %115 = load ptr, ptr %8, align 8, !tbaa !10
  call void @llvm.memcpy.p0.p0.i64(ptr align 8 %114, ptr align 8 %115, i64 24, i1 false)
  br label %119

116:                                              ; preds = %109
  %117 = getelementptr inbounds nuw %class.grpc_ssl_credentials, ptr %21, i32 0, i32 1
  %118 = getelementptr inbounds nuw %struct.grpc_ssl_config, ptr %117, i32 0, i32 2
  call void @llvm.memset.p0.i64(ptr align 8 %118, i8 0, i64 24, i1 false)
  br label %119

119:                                              ; preds = %116, %112
  ret void

120:                                              ; preds = %85, %56
  %121 = load ptr, ptr %14, align 8
  %122 = load i32, ptr %15, align 4
  %123 = insertvalue { ptr, i32 } poison, ptr %121, 0
  %124 = insertvalue { ptr, i32 } %123, i32 %122, 1
  resume { ptr, i32 } %124
}