; Function Attrs: mustprogress uwtable
define void @_ZN20grpc_ssl_credentials12build_configEPKcP26grpc_ssl_pem_key_cert_pairPK28grpc_ssl_verify_peer_options(ptr noundef nonnull align 8 captures(none) dereferenceable(84) initializes((24, 32)) %0, ptr noundef %1, ptr noundef readonly %2, ptr noundef readonly %3) local_unnamed_addr #3 align 2 personality ptr @__gxx_personality_v0 {
  %5 = alloca %"class.absl::lts_20240722::log_internal::LogMessageFatal", align 8
  %6 = alloca %"class.absl::lts_20240722::log_internal::LogMessageFatal", align 8
  %7 = tail call ptr @gpr_strdup(ptr noundef %1)
  %8 = getelementptr inbounds nuw i8, ptr %0, i64 16
  %9 = getelementptr inbounds nuw i8, ptr %0, i64 24
  store ptr %7, ptr %9, align 8, !tbaa !18
  %.not = icmp eq ptr %2, null
  br i1 %.not, label %34, label %10

10:                                               ; preds = %4
  %11 = load ptr, ptr %2, align 8, !tbaa !30
  %.not.i = icmp eq ptr %11, null
  br i1 %.not.i, label %15, label %12, !prof !31

12:                                               ; preds = %10
  %13 = getelementptr inbounds nuw i8, ptr %2, i64 8
  %14 = load ptr, ptr %13, align 8, !tbaa !30
  %.not.i21 = icmp eq ptr %14, null
  br i1 %.not.i21, label %29, label %20, !prof !31

15:                                               ; preds = %10
  %16 = tail call noundef nonnull ptr @_ZN4absl12lts_2024072212log_internal17MakeCheckOpStringIPKcPKvEEPNSt7__cxx1112basic_stringIcSt11char_traitsIcESaIcEEET_T0_S4_(ptr noundef null, ptr noundef null, ptr noundef nonnull @.str.8)
  call void @llvm.lifetime.start.p0(i64 16, ptr nonnull %5) #28
  %17 = load ptr, ptr %16, align 8, !tbaa !32
  %18 = getelementptr inbounds nuw i8, ptr %16, i64 8
  %19 = load i64, ptr %18, align 8, !tbaa !35
  call void @_ZN4absl12lts_2024072212log_internal15LogMessageFatalC1EPKciSt17basic_string_viewIcSt11char_traitsIcEE(ptr noundef nonnull align 8 dereferenceable(16) %5, ptr noundef nonnull @.str, i32 noundef 147, i64 %19, ptr %17) #29
  call void @_ZN4absl12lts_2024072212log_internal15LogMessageFatalD1Ev(ptr noundef nonnull align 8 dereferenceable(16) %5) #31
  unreachable

20:                                               ; preds = %12
  %21 = tail call ptr @gpr_zalloc(i64 noundef 16)
  store ptr %21, ptr %8, align 8, !tbaa !36
  %22 = load ptr, ptr %13, align 8, !tbaa !37
  %23 = tail call ptr @gpr_strdup(ptr noundef %22)
  %24 = load ptr, ptr %8, align 8, !tbaa !36
  %25 = getelementptr inbounds nuw i8, ptr %24, i64 8
  store ptr %23, ptr %25, align 8, !tbaa !39
  %26 = load ptr, ptr %2, align 8, !tbaa !41
  %27 = tail call ptr @gpr_strdup(ptr noundef %26)
  %28 = load ptr, ptr %8, align 8, !tbaa !36
  store ptr %27, ptr %28, align 8, !tbaa !42
  br label %35

29:                                               ; preds = %12
  %30 = tail call noundef nonnull ptr @_ZN4absl12lts_2024072212log_internal17MakeCheckOpStringIPKcPKvEEPNSt7__cxx1112basic_stringIcSt11char_traitsIcESaIcEEET_T0_S4_(ptr noundef null, ptr noundef null, ptr noundef nonnull @.str.9)
  call void @llvm.lifetime.start.p0(i64 16, ptr nonnull %6) #28
  %31 = load ptr, ptr %30, align 8, !tbaa !32
  %32 = getelementptr inbounds nuw i8, ptr %30, i64 8
  %33 = load i64, ptr %32, align 8, !tbaa !35
  call void @_ZN4absl12lts_2024072212log_internal15LogMessageFatalC1EPKciSt17basic_string_viewIcSt11char_traitsIcEE(ptr noundef nonnull align 8 dereferenceable(16) %6, ptr noundef nonnull @.str, i32 noundef 148, i64 %33, ptr %31) #29
  call void @_ZN4absl12lts_2024072212log_internal15LogMessageFatalD1Ev(ptr noundef nonnull align 8 dereferenceable(16) %6) #31
  unreachable

34:                                               ; preds = %4
  store ptr null, ptr %8, align 8, !tbaa !36
  br label %35

35:                                               ; preds = %34, %20
  %.not20 = icmp eq ptr %3, null
  %36 = getelementptr inbounds nuw i8, ptr %0, i64 32
  br i1 %.not20, label %38, label %37

37:                                               ; preds = %35
  tail call void @llvm.memcpy.p0.p0.i64(ptr noundef nonnull align 8 dereferenceable(24) %36, ptr noundef nonnull align 8 dereferenceable(24) %3, i64 24, i1 false)
  br label %39

38:                                               ; preds = %35
  tail call void @llvm.memset.p0.i64(ptr noundef nonnull align 8 dereferenceable(24) %36, i8 0, i64 24, i1 false)
  br label %39

39:                                               ; preds = %38, %37
  ret void
}